; Function Attrs: null_pointer_is_valid sspstrong uwtable
define internal fastcc void @add_group_mask_entry(ptr noundef %0, ptr noundef %1, i32 noundef %2, i32 noundef range(i32 1, 9) %3, ptr noundef readonly captures(none) %4, i32 noundef range(i32 2, 18) %5) unnamed_addr #0 {
  %7 = load i32, ptr %4, align 4
  %8 = tail call ptr @proto_tree_add_item(ptr noundef %1, i32 noundef %7, ptr noundef %0, i32 noundef %2, i32 noundef %3, i32 noundef -2147483648)
  %9 = load i32, ptr @ett_data, align 4
  %10 = tail call ptr @proto_item_add_subtree(ptr noundef %8, i32 noundef %9)
  %wide.trip.count = zext nneg i32 %5 to i64
  br label %11

11:                                               ; preds = %6, %11
  %indvars.iv = phi i64 [ 1, %6 ], [ %indvars.iv.next, %11 ]
  %12 = getelementptr i32, ptr %4, i64 %indvars.iv
  %13 = load i32, ptr %12, align 4
  %14 = tail call ptr @proto_tree_add_item(ptr noundef %10, i32 noundef %13, ptr noundef %0, i32 noundef %2, i32 noundef %3, i32 noundef -2147483648)
  %indvars.iv.next = add nuw nsw i64 %indvars.iv, 1
  %exitcond.not = icmp eq i64 %indvars.iv.next, %wide.trip.count
  br i1 %exitcond.not, label %15, label %11, !llvm.loop !10

15:                                               ; preds = %11
  ret void
}